; ModuleID = '36/1330.c'
source_filename = "36/1330.c"
target datalayout = "e-m:e-p270:32:32-p271:32:32-p272:64:64-i64:64-f80:128-n8:16:32:64-S128"
target triple = "x86_64-pc-linux-gnu"

@.str = private unnamed_addr constant [5 x i8] c"%s%s\00", align 1
@.str.1 = private unnamed_addr constant [4 x i8] c"YES\00", align 1
@.str.2 = private unnamed_addr constant [3 x i8] c"NO\00", align 1

; Function Attrs: noinline nounwind uwtable
define dso_local i32 @main() #0 {
  %1 = alloca i32, align 4
  %2 = alloca i32, align 4
  %3 = alloca i32, align 4
  %4 = alloca [10000 x i8], align 16
  %5 = alloca [10000 x i8], align 16
  %6 = alloca i8, align 1
  %7 = alloca i8, align 1
  store i32 0, i32* %1, align 4
  %8 = getelementptr inbounds [10000 x i8], [10000 x i8]* %4, i64 0, i64 0
  %9 = getelementptr inbounds [10000 x i8], [10000 x i8]* %5, i64 0, i64 0
  %10 = call i32 (i8*, ...) @__isoc99_scanf(i8* getelementptr inbounds ([5 x i8], [5 x i8]* @.str, i64 0, i64 0), i8* %8, i8* %9)
  %11 = getelementptr inbounds [10000 x i8], [10000 x i8]* %4, i64 0, i64 0
  %12 = call i64 @strlen(i8* %11) #3
  %13 = getelementptr inbounds [10000 x i8], [10000 x i8]* %5, i64 0, i64 0
  %14 = call i64 @strlen(i8* %13) #3
  %15 = icmp eq i64 %12, %14
  br i1 %15, label %16, label %133

16:                                               ; preds = %0
  store i32 0, i32* %2, align 4
  br label %17

17:                                               ; preds = %71, %16
  %18 = load i32, i32* %2, align 4
  %19 = sext i32 %18 to i64
  %20 = getelementptr inbounds [10000 x i8], [10000 x i8]* %4, i64 0, i64 0
  %21 = call i64 @strlen(i8* %20) #3
  %22 = sub i64 %21, 1
  %23 = icmp ult i64 %19, %22
  br i1 %23, label %24, label %74

24:                                               ; preds = %17
  store i32 0, i32* %3, align 4
  br label %25

25:                                               ; preds = %67, %24
  %26 = load i32, i32* %3, align 4
  %27 = sext i32 %26 to i64
  %28 = getelementptr inbounds [10000 x i8], [10000 x i8]* %4, i64 0, i64 0
  %29 = call i64 @strlen(i8* %28) #3
  %30 = load i32, i32* %2, align 4
  %31 = sext i32 %30 to i64
  %32 = sub i64 %29, %31
  %33 = sub i64 %32, 1
  %34 = icmp ult i64 %27, %33
  br i1 %34, label %35, label %70

35:                                               ; preds = %25
  %36 = load i32, i32* %3, align 4
  %37 = sext i32 %36 to i64
  %38 = getelementptr inbounds [10000 x i8], [10000 x i8]* %4, i64 0, i64 %37
  %39 = load i8, i8* %38, align 1
  %40 = sext i8 %39 to i32
  %41 = load i32, i32* %3, align 4
  %42 = add nsw i32 %41, 1
  %43 = sext i32 %42 to i64
  %44 = getelementptr inbounds [10000 x i8], [10000 x i8]* %4, i64 0, i64 %43
  %45 = load i8, i8* %44, align 1
  %46 = sext i8 %45 to i32
  %47 = icmp sgt i32 %40, %46
  br i1 %47, label %48, label %66

48:                                               ; preds = %35
  %49 = load i32, i32* %3, align 4
  %50 = add nsw i32 %49, 1
  %51 = sext i32 %50 to i64
  %52 = getelementptr inbounds [10000 x i8], [10000 x i8]* %4, i64 0, i64 %51
  %53 = load i8, i8* %52, align 1
  store i8 %53, i8* %6, align 1
  %54 = load i32, i32* %3, align 4
  %55 = sext i32 %54 to i64
  %56 = getelementptr inbounds [10000 x i8], [10000 x i8]* %4, i64 0, i64 %55
  %57 = load i8, i8* %56, align 1
  %58 = load i32, i32* %3, align 4
  %59 = add nsw i32 %58, 1
  %60 = sext i32 %59 to i64
  %61 = getelementptr inbounds [10000 x i8], [10000 x i8]* %4, i64 0, i64 %60
  store i8 %57, i8* %61, align 1
  %62 = load i8, i8* %6, align 1
  %63 = load i32, i32* %3, align 4
  %64 = sext i32 %63 to i64
  %65 = getelementptr inbounds [10000 x i8], [10000 x i8]* %4, i64 0, i64 %64
  store i8 %62, i8* %65, align 1
  br label %66

66:                                               ; preds = %48, %35
  br label %67

67:                                               ; preds = %66
  %68 = load i32, i32* %3, align 4
  %69 = add nsw i32 %68, 1
  store i32 %69, i32* %3, align 4
  br label %25

70:                                               ; preds = %25
  br label %71

71:                                               ; preds = %70
  %72 = load i32, i32* %2, align 4
  %73 = add nsw i32 %72, 1
  store i32 %73, i32* %2, align 4
  br label %17

74:                                               ; preds = %17
  store i32 0, i32* %2, align 4
  br label %75

75:                                               ; preds = %129, %74
  %76 = load i32, i32* %2, align 4
  %77 = sext i32 %76 to i64
  %78 = getelementptr inbounds [10000 x i8], [10000 x i8]* %5, i64 0, i64 0
  %79 = call i64 @strlen(i8* %78) #3
  %80 = sub i64 %79, 1
  %81 = icmp ult i64 %77, %80
  br i1 %81, label %82, label %132

82:                                               ; preds = %75
  store i32 0, i32* %3, align 4
  br label %83

83:                                               ; preds = %125, %82
  %84 = load i32, i32* %3, align 4
  %85 = sext i32 %84 to i64
  %86 = getelementptr inbounds [10000 x i8], [10000 x i8]* %5, i64 0, i64 0
  %87 = call i64 @strlen(i8* %86) #3
  %88 = load i32, i32* %2, align 4
  %89 = sext i32 %88 to i64
  %90 = sub i64 %87, %89
  %91 = sub i64 %90, 1
  %92 = icmp ult i64 %85, %91
  br i1 %92, label %93, label %128

93:                                               ; preds = %83
  %94 = load i32, i32* %3, align 4
  %95 = sext i32 %94 to i64
  %96 = getelementptr inbounds [10000 x i8], [10000 x i8]* %5, i64 0, i64 %95
  %97 = load i8, i8* %96, align 1
  %98 = sext i8 %97 to i32
  %99 = load i32, i32* %3, align 4
  %100 = add nsw i32 %99, 1
  %101 = sext i32 %100 to i64
  %102 = getelementptr inbounds [10000 x i8], [10000 x i8]* %5, i64 0, i64 %101
  %103 = load i8, i8* %102, align 1
  %104 = sext i8 %103 to i32
  %105 = icmp sgt i32 %98, %104
  br i1 %105, label %106, label %124

106:                                              ; preds = %93
  %107 = load i32, i32* %3, align 4
  %108 = add nsw i32 %107, 1
  %109 = sext i32 %108 to i64
  %110 = getelementptr inbounds [10000 x i8], [10000 x i8]* %5, i64 0, i64 %109
  %111 = load i8, i8* %110, align 1
  store i8 %111, i8* %7, align 1
  %112 = load i32, i32* %3, align 4
  %113 = sext i32 %112 to i64
  %114 = getelementptr inbounds [10000 x i8], [10000 x i8]* %5, i64 0, i64 %113
  %115 = load i8, i8* %114, align 1
  %116 = load i32, i32* %3, align 4
  %117 = add nsw i32 %116, 1
  %118 = sext i32 %117 to i64
  %119 = getelementptr inbounds [10000 x i8], [10000 x i8]* %5, i64 0, i64 %118
  store i8 %115, i8* %119, align 1
  %120 = load i8, i8* %7, align 1
  %121 = load i32, i32* %3, align 4
  %122 = sext i32 %121 to i64
  %123 = getelementptr inbounds [10000 x i8], [10000 x i8]* %5, i64 0, i64 %122
  store i8 %120, i8* %123, align 1
  br label %124

124:                                              ; preds = %106, %93
  br label %125

125:                                              ; preds = %124
  %126 = load i32, i32* %3, align 4
  %127 = add nsw i32 %126, 1
  store i32 %127, i32* %3, align 4
  br label %83

128:                                              ; preds = %83
  br label %129

129:                                              ; preds = %128
  %130 = load i32, i32* %2, align 4
  %131 = add nsw i32 %130, 1
  store i32 %131, i32* %2, align 4
  br label %75

132:                                              ; preds = %75
  br label %133

133:                                              ; preds = %132, %0
  %134 = getelementptr inbounds [10000 x i8], [10000 x i8]* %4, i64 0, i64 0
  %135 = getelementptr inbounds [10000 x i8], [10000 x i8]* %5, i64 0, i64 0
  %136 = call i32 @strcmp(i8* %134, i8* %135) #3
  %137 = icmp eq i32 %136, 0
  br i1 %137, label %138, label %140

138:                                              ; preds = %133
  %139 = call i32 (i8*, ...) @printf(i8* getelementptr inbounds ([4 x i8], [4 x i8]* @.str.1, i64 0, i64 0))
  br label %142

140:                                              ; preds = %133
  %141 = call i32 (i8*, ...) @printf(i8* getelementptr inbounds ([3 x i8], [3 x i8]* @.str.2, i64 0, i64 0))
  br label %142

142:                                              ; preds = %140, %138
  ret i32 0
}

declare dso_local i32 @__isoc99_scanf(i8*, ...) #1

; Function Attrs: nounwind readonly
declare dso_local i64 @strlen(i8*) #2

; Function Attrs: nounwind readonly
declare dso_local i32 @strcmp(i8*, i8*) #2

declare dso_local i32 @printf(i8*, ...) #1


!llvm.module.flags = !{!0}
!llvm.ident = !{!1}

!0 = !{i32 1, !"wchar_size", i32 4}
!1 = !{!"clang version 10.0.0-4ubuntu1 "}
